target datalayout = "e-m:e-p270:32:32-p271:32:32-p272:64:64-i64:64-i128:128-f80:128-n8:16:32:64-S128"
target triple = "x86_64-pc-linux-gnu"

%struct.rb_method_entry_struct = type { i64, i64, ptr, i64, i64 }

; Function Attrs: nounwind sspstrong uwtable
define hidden i64 @rb_method_entry_location(ptr noundef %0) #0 {
  %2 = alloca i64, align 8
  %3 = alloca ptr, align 8
  store ptr %0, ptr %3, align 8, !tbaa !108
  %4 = load ptr, ptr %3, align 8, !tbaa !108
  %5 = icmp ne ptr %4, null
  br i1 %5, label %7, label %6

6:                                                ; preds = %1
  store i64 4, ptr %2, align 8
  br label %12

7:                                                ; preds = %1
  %8 = load ptr, ptr %3, align 8, !tbaa !108
  %9 = getelementptr inbounds nuw %struct.rb_method_entry_struct, ptr %8, i32 0, i32 2
  %10 = load ptr, ptr %9, align 8, !tbaa !109
  %11 = call i64 @method_def_location(ptr noundef %10)
  store i64 %11, ptr %2, align 8
  br label %12

12:                                               ; preds = %7, %6
  %13 = load i64, ptr %2, align 8
  ret i64 %13
}