; Function Attrs: nounwind sspstrong uwtable
define hidden i64 @rb_method_entry_location(ptr noundef readonly captures(address_is_null) %0) local_unnamed_addr #0 {
  %.not = icmp eq ptr %0, null
  br i1 %.not, label %6, label %2

2:                                                ; preds = %1
  %3 = getelementptr inbounds nuw i8, ptr %0, i64 16
  %4 = load ptr, ptr %3, align 8, !tbaa !77
  %5 = tail call fastcc i64 @method_def_location(ptr noundef %4)
  br label %6

6:                                                ; preds = %1, %2
  %.0 = phi i64 [ %5, %2 ], [ 4, %1 ]
  ret i64 %.0
}